; Function Attrs: mustprogress uwtable
define internal fastcc void @_ZN5arrow12_GLOBAL__N_117MimallocAllocator15AllocateAlignedEllPPh(ptr dead_on_unwind noalias nonnull writable align 8 %0, i64 noundef %1, i64 noundef %2, ptr noundef writeonly captures(none) initializes((0, 8)) %3) unnamed_addr #4 align 2 personality ptr @__gxx_personality_v0 {
  %5 = alloca %"class.std::__cxx11::basic_string", align 8
  %6 = alloca i64, align 8
  store i64 %1, ptr %6, align 8, !tbaa !108
  %7 = icmp eq i64 %1, 0
  br i1 %7, label %8, label %9

8:                                                ; preds = %4
  store ptr @_ZN5arrow11memory_pool8internal14zero_size_areaE, ptr %3, align 8, !tbaa !106
  store ptr null, ptr %0, align 8, !tbaa !21, !alias.scope !405
  br label %33

9:                                                ; preds = %4
  %10 = tail call noalias ptr @mi_malloc_aligned(i64 noundef %1, i64 noundef %2) #32
  store ptr %10, ptr %3, align 8, !tbaa !106
  %11 = icmp eq ptr %10, null
  br i1 %11, label %12, label %32

12:                                               ; preds = %9
  call void @llvm.lifetime.start.p0(i64 32, ptr nonnull %5) #32, !noalias !408
  call void @_ZN5arrow4util13StringBuilderIJRA16_KcRlRA8_S2_EEENSt7__cxx1112basic_stringIcSt11char_traitsIcESaIcEEEDpOT_(ptr dead_on_unwind nonnull writable sret(%"class.std::__cxx11::basic_string") align 8 %5, ptr noundef nonnull align 1 dereferenceable(16) @.str.42, ptr noundef nonnull align 8 dereferenceable(8) %6, ptr noundef nonnull align 1 dereferenceable(8) @.str.43), !noalias !408
  invoke void @_ZN5arrow6StatusC1ENS_10StatusCodeERKNSt7__cxx1112basic_stringIcSt11char_traitsIcESaIcEEE(ptr noundef nonnull align 8 dereferenceable(8) %0, i8 noundef signext 1, ptr noundef nonnull align 8 dereferenceable(32) %5)
          to label %13 unwind label %22

13:                                               ; preds = %12
  %14 = load ptr, ptr %5, align 8, !tbaa !41, !noalias !408
  %15 = getelementptr inbounds nuw i8, ptr %5, i64 16
  %16 = icmp eq ptr %14, %15
  br i1 %16, label %_ZNKSt7__cxx1112basic_stringIcSt11char_traitsIcESaIcEE11_M_is_localEv.exit.thread.i.i.i.i, label %_ZNKSt7__cxx1112basic_stringIcSt11char_traitsIcESaIcEE11_M_is_localEv.exit.i.i.i.i

_ZNKSt7__cxx1112basic_stringIcSt11char_traitsIcESaIcEE11_M_is_localEv.exit.thread.i.i.i.i: ; preds = %13
  %17 = getelementptr inbounds nuw i8, ptr %5, i64 8
  %18 = load i64, ptr %17, align 8, !tbaa !42, !noalias !408
  %19 = icmp ult i64 %18, 16
  call void @llvm.assume(i1 %19)
  br label %_ZN5arrow6Status11OutOfMemoryIJRA16_KcRlRA8_S2_EEES0_DpOT_.exit

_ZNKSt7__cxx1112basic_stringIcSt11char_traitsIcESaIcEE11_M_is_localEv.exit.i.i.i.i: ; preds = %13
  %20 = load i64, ptr %15, align 8, !tbaa !43, !noalias !408
  %21 = add i64 %20, 1
  call void @_ZdlPvm(ptr noundef %14, i64 noundef %21) #34
  br label %_ZN5arrow6Status11OutOfMemoryIJRA16_KcRlRA8_S2_EEES0_DpOT_.exit

22:                                               ; preds = %12
  %23 = landingpad { ptr, i32 }
          cleanup
  %24 = load ptr, ptr %5, align 8, !tbaa !41, !noalias !408
  %25 = getelementptr inbounds nuw i8, ptr %5, i64 16
  %26 = icmp eq ptr %24, %25
  br i1 %26, label %_ZNKSt7__cxx1112basic_stringIcSt11char_traitsIcESaIcEE11_M_is_localEv.exit.thread.i.i6.i.i, label %_ZNKSt7__cxx1112basic_stringIcSt11char_traitsIcESaIcEE11_M_is_localEv.exit.i.i5.i.i

_ZNKSt7__cxx1112basic_stringIcSt11char_traitsIcESaIcEE11_M_is_localEv.exit.thread.i.i6.i.i: ; preds = %22
  %27 = getelementptr inbounds nuw i8, ptr %5, i64 8
  %28 = load i64, ptr %27, align 8, !tbaa !42, !noalias !408
  %29 = icmp ult i64 %28, 16
  call void @llvm.assume(i1 %29)
  br label %_ZNSt7__cxx1112basic_stringIcSt11char_traitsIcESaIcEED2Ev.exit7.i.i

_ZNKSt7__cxx1112basic_stringIcSt11char_traitsIcESaIcEE11_M_is_localEv.exit.i.i5.i.i: ; preds = %22
  %30 = load i64, ptr %25, align 8, !tbaa !43, !noalias !408
  %31 = add i64 %30, 1
  call void @_ZdlPvm(ptr noundef %24, i64 noundef %31) #34
  br label %_ZNSt7__cxx1112basic_stringIcSt11char_traitsIcESaIcEED2Ev.exit7.i.i

_ZNSt7__cxx1112basic_stringIcSt11char_traitsIcESaIcEED2Ev.exit7.i.i: ; preds = %_ZNKSt7__cxx1112basic_stringIcSt11char_traitsIcESaIcEE11_M_is_localEv.exit.i.i5.i.i, %_ZNKSt7__cxx1112basic_stringIcSt11char_traitsIcESaIcEE11_M_is_localEv.exit.thread.i.i6.i.i
  call void @llvm.lifetime.end.p0(i64 32, ptr nonnull %5) #32, !noalias !408
  resume { ptr, i32 } %23

_ZN5arrow6Status11OutOfMemoryIJRA16_KcRlRA8_S2_EEES0_DpOT_.exit: ; preds = %_ZNKSt7__cxx1112basic_stringIcSt11char_traitsIcESaIcEE11_M_is_localEv.exit.thread.i.i.i.i, %_ZNKSt7__cxx1112basic_stringIcSt11char_traitsIcESaIcEE11_M_is_localEv.exit.i.i.i.i
  call void @llvm.lifetime.end.p0(i64 32, ptr nonnull %5) #32, !noalias !408
  br label %33

32:                                               ; preds = %9
  store ptr null, ptr %0, align 8, !tbaa !21, !alias.scope !413
  br label %33

33:                                               ; preds = %32, %_ZN5arrow6Status11OutOfMemoryIJRA16_KcRlRA8_S2_EEES0_DpOT_.exit, %8
  ret void
}